; Function Attrs: mustprogress uwtable
define noundef ptr @_ZN9grpc_core24CertificateProviderStore16PluginDefinition10JsonLoaderERKNS_8JsonArgsE(ptr nocapture noundef nonnull readnone align 8 dereferenceable(8) %0) local_unnamed_addr #3 align 2 personality ptr @__gxx_personality_v0 {
entry:
  %1 = load atomic i8, ptr @_ZGVZN9grpc_core24CertificateProviderStore16PluginDefinition10JsonLoaderERKNS_8JsonArgsEE6loader acquire, align 8
  %guard.uninitialized = icmp eq i8 %1, 0
  br i1 %guard.uninitialized, label %init.check, label %init.end, !prof !4

init.check:                                       ; preds = %entry
  %2 = tail call i32 @__cxa_guard_acquire(ptr nonnull @_ZGVZN9grpc_core24CertificateProviderStore16PluginDefinition10JsonLoaderERKNS_8JsonArgsEE6loader) #18
  %tobool.not = icmp eq i32 %2, 0
  br i1 %tobool.not, label %init.end, label %invoke.cont2

invoke.cont2:                                     ; preds = %init.check
  %call.i1 = invoke noalias noundef nonnull dereferenceable(40) ptr @_Znwm(i64 noundef 40) #19
          to label %invoke.cont3 unwind label %lpad

invoke.cont3:                                     ; preds = %invoke.cont2
  store ptr getelementptr inbounds ({ [3 x ptr] }, ptr @_ZTVN9grpc_core11json_detail24FinishedJsonObjectLoaderINS_24CertificateProviderStore16PluginDefinitionELm1EvEE, i64 0, i32 0, i64 2), ptr %call.i1, align 8
  %elements_.i.i = getelementptr inbounds i8, ptr %call.i1, i64 8
  store ptr @_ZN9grpc_core19NoDestructSingletonINS_11json_detail10AutoLoaderINSt7__cxx1112basic_stringIcSt11char_traitsIcESaIcEEEEEE6value_E, ptr %elements_.i.i, align 8
  %ref.tmp.sroa.2.0.elements_.i.i.sroa_idx = getelementptr inbounds i8, ptr %call.i1, i64 16
  store i16 0, ptr %ref.tmp.sroa.2.0.elements_.i.i.sroa_idx, align 8
  %ref.tmp.sroa.3.0.elements_.i.i.sroa_idx = getelementptr inbounds i8, ptr %call.i1, i64 18
  store i8 0, ptr %ref.tmp.sroa.3.0.elements_.i.i.sroa_idx, align 2
  %ref.tmp.sroa.42.0.elements_.i.i.sroa_idx = getelementptr inbounds i8, ptr %call.i1, i64 24
  store ptr @.str, ptr %ref.tmp.sroa.42.0.elements_.i.i.sroa_idx, align 8
  %ref.tmp.sroa.5.0.elements_.i.i.sroa_idx = getelementptr inbounds i8, ptr %call.i1, i64 32
  store ptr null, ptr %ref.tmp.sroa.5.0.elements_.i.i.sroa_idx, align 8
  store ptr %call.i1, ptr @_ZZN9grpc_core24CertificateProviderStore16PluginDefinition10JsonLoaderERKNS_8JsonArgsEE6loader, align 8
  tail call void @__cxa_guard_release(ptr nonnull @_ZGVZN9grpc_core24CertificateProviderStore16PluginDefinition10JsonLoaderERKNS_8JsonArgsEE6loader) #18
  br label %init.end

init.end:                                         ; preds = %invoke.cont3, %init.check, %entry
  %3 = load ptr, ptr @_ZZN9grpc_core24CertificateProviderStore16PluginDefinition10JsonLoaderERKNS_8JsonArgsEE6loader, align 8
  ret ptr %3

lpad:                                             ; preds = %invoke.cont2
  %4 = landingpad { ptr, i32 }
          cleanup
  tail call void @__cxa_guard_abort(ptr nonnull @_ZGVZN9grpc_core24CertificateProviderStore16PluginDefinition10JsonLoaderERKNS_8JsonArgsEE6loader) #18
  resume { ptr, i32 } %4
}